target datalayout = "e-m:e-p270:32:32-p271:32:32-p272:64:64-i64:64-i128:128-f80:128-n8:16:32:64-S128"
target triple = "x86_64-pc-linux-gnu"

%struct.H5O_shared_t = type { i32, ptr, i32, %union.anon }
%union.anon = type { %struct.H5O_mesg_loc_t }
%struct.H5O_mesg_loc_t = type { i32, i64 }

@.str.8 = private unnamed_addr constant [12 x i8] c"%*s%-*s %s\0A\00", align 1
@.str.9 = private unnamed_addr constant [1 x i8] zeroinitializer, align 1
@.str.10 = private unnamed_addr constant [21 x i8] c"Shared Message type:\00", align 1
@.str.11 = private unnamed_addr constant [9 x i8] c"Unshared\00", align 1
@.str.12 = private unnamed_addr constant [8 x i8] c"Obj Hdr\00", align 1
@.str.13 = private unnamed_addr constant [13 x i8] c"%*s%-*s %lu\0A\00", align 1
@.str.14 = private unnamed_addr constant [16 x i8] c"Object address:\00", align 1
@.str.15 = private unnamed_addr constant [5 x i8] c"SOHM\00", align 1
@.str.16 = private unnamed_addr constant [17 x i8] c"%*s%-*s %016llx\0A\00", align 1
@.str.17 = private unnamed_addr constant [9 x i8] c"Heap ID:\00", align 1
@.str.18 = private unnamed_addr constant [5 x i8] c"Here\00", align 1
@.str.19 = private unnamed_addr constant [17 x i8] c"%*s%-*s %s (%u)\0A\00", align 1
@.str.20 = private unnamed_addr constant [8 x i8] c"Unknown\00", align 1

; Function Attrs: nounwind uwtable
define i32 @H5O__shared_debug(ptr noundef %0, ptr noundef %1, i32 noundef %2, i32 noundef %3) #0 {
  %5 = alloca ptr, align 8
  %6 = alloca ptr, align 8
  %7 = alloca i32, align 4
  %8 = alloca i32, align 4
  store ptr %0, ptr %5, align 8
  store ptr %1, ptr %6, align 8
  store i32 %2, ptr %7, align 4
  store i32 %3, ptr %8, align 4
  %9 = load ptr, ptr %5, align 8
  %10 = getelementptr inbounds %struct.H5O_shared_t, ptr %9, i32 0, i32 0
  %11 = load i32, ptr %10, align 8
  switch i32 %11, label %47 [
    i32 0, label %12
    i32 2, label %17
    i32 1, label %30
    i32 3, label %42
  ]

12:                                               ; preds = %4
  %13 = load ptr, ptr %6, align 8
  %14 = load i32, ptr %7, align 4
  %15 = load i32, ptr %8, align 4
  %16 = call i32 (ptr, ptr, ...) @fprintf(ptr noundef %13, ptr noundef @.str.8, i32 noundef %14, ptr noundef @.str.9, i32 noundef %15, ptr noundef @.str.10, ptr noundef @.str.11) #4
  br label %55

17:                                               ; preds = %4
  %18 = load ptr, ptr %6, align 8
  %19 = load i32, ptr %7, align 4
  %20 = load i32, ptr %8, align 4
  %21 = call i32 (ptr, ptr, ...) @fprintf(ptr noundef %18, ptr noundef @.str.8, i32 noundef %19, ptr noundef @.str.9, i32 noundef %20, ptr noundef @.str.10, ptr noundef @.str.12) #4
  %22 = load ptr, ptr %6, align 8
  %23 = load i32, ptr %7, align 4
  %24 = load i32, ptr %8, align 4
  %25 = load ptr, ptr %5, align 8
  %26 = getelementptr inbounds %struct.H5O_shared_t, ptr %25, i32 0, i32 3
  %27 = getelementptr inbounds %struct.H5O_mesg_loc_t, ptr %26, i32 0, i32 1
  %28 = load i64, ptr %27, align 8
  %29 = call i32 (ptr, ptr, ...) @fprintf(ptr noundef %22, ptr noundef @.str.13, i32 noundef %23, ptr noundef @.str.9, i32 noundef %24, ptr noundef @.str.14, i64 noundef %28) #4
  br label %55

30:                                               ; preds = %4
  %31 = load ptr, ptr %6, align 8
  %32 = load i32, ptr %7, align 4
  %33 = load i32, ptr %8, align 4
  %34 = call i32 (ptr, ptr, ...) @fprintf(ptr noundef %31, ptr noundef @.str.8, i32 noundef %32, ptr noundef @.str.9, i32 noundef %33, ptr noundef @.str.10, ptr noundef @.str.15) #4
  %35 = load ptr, ptr %6, align 8
  %36 = load i32, ptr %7, align 4
  %37 = load i32, ptr %8, align 4
  %38 = load ptr, ptr %5, align 8
  %39 = getelementptr inbounds %struct.H5O_shared_t, ptr %38, i32 0, i32 3
  %40 = load i64, ptr %39, align 8
  %41 = call i32 (ptr, ptr, ...) @fprintf(ptr noundef %35, ptr noundef @.str.16, i32 noundef %36, ptr noundef @.str.9, i32 noundef %37, ptr noundef @.str.17, i64 noundef %40) #4
  br label %55

42:                                               ; preds = %4
  %43 = load ptr, ptr %6, align 8
  %44 = load i32, ptr %7, align 4
  %45 = load i32, ptr %8, align 4
  %46 = call i32 (ptr, ptr, ...) @fprintf(ptr noundef %43, ptr noundef @.str.8, i32 noundef %44, ptr noundef @.str.9, i32 noundef %45, ptr noundef @.str.10, ptr noundef @.str.18) #4
  br label %55

47:                                               ; preds = %4
  %48 = load ptr, ptr %6, align 8
  %49 = load i32, ptr %7, align 4
  %50 = load i32, ptr %8, align 4
  %51 = load ptr, ptr %5, align 8
  %52 = getelementptr inbounds %struct.H5O_shared_t, ptr %51, i32 0, i32 0
  %53 = load i32, ptr %52, align 8
  %54 = call i32 (ptr, ptr, ...) @fprintf(ptr noundef %48, ptr noundef @.str.19, i32 noundef %49, ptr noundef @.str.9, i32 noundef %50, ptr noundef @.str.10, ptr noundef @.str.20, i32 noundef %53) #4
  br label %55

55:                                               ; preds = %47, %42, %30, %17, %12
  ret i32 0
}