; Function Attrs: nofree nounwind uwtable
define noundef i32 @H5O__shared_debug(ptr nocapture noundef readonly %0, ptr nocapture noundef %1, i32 noundef %2, i32 noundef %3) local_unnamed_addr #4 {
  %5 = load i32, ptr %0, align 8
  switch i32 %5, label %20 [
    i32 0, label %6
    i32 2, label %8
    i32 1, label %13
    i32 3, label %18
  ]

6:                                                ; preds = %4
  %7 = tail call i32 (ptr, ptr, ...) @fprintf(ptr noundef %1, ptr noundef nonnull @.str.8, i32 noundef %2, ptr noundef nonnull @.str.9, i32 noundef %3, ptr noundef nonnull @.str.10, ptr noundef nonnull @.str.11) #7
  br label %22

8:                                                ; preds = %4
  %9 = tail call i32 (ptr, ptr, ...) @fprintf(ptr noundef %1, ptr noundef nonnull @.str.8, i32 noundef %2, ptr noundef nonnull @.str.9, i32 noundef %3, ptr noundef nonnull @.str.10, ptr noundef nonnull @.str.12) #7
  %10 = getelementptr inbounds i8, ptr %0, i64 32
  %11 = load i64, ptr %10, align 8
  %12 = tail call i32 (ptr, ptr, ...) @fprintf(ptr noundef %1, ptr noundef nonnull @.str.13, i32 noundef %2, ptr noundef nonnull @.str.9, i32 noundef %3, ptr noundef nonnull @.str.14, i64 noundef %11) #7
  br label %22

13:                                               ; preds = %4
  %14 = tail call i32 (ptr, ptr, ...) @fprintf(ptr noundef %1, ptr noundef nonnull @.str.8, i32 noundef %2, ptr noundef nonnull @.str.9, i32 noundef %3, ptr noundef nonnull @.str.10, ptr noundef nonnull @.str.15) #7
  %15 = getelementptr inbounds i8, ptr %0, i64 24
  %16 = load i64, ptr %15, align 8
  %17 = tail call i32 (ptr, ptr, ...) @fprintf(ptr noundef %1, ptr noundef nonnull @.str.16, i32 noundef %2, ptr noundef nonnull @.str.9, i32 noundef %3, ptr noundef nonnull @.str.17, i64 noundef %16) #7
  br label %22

18:                                               ; preds = %4
  %19 = tail call i32 (ptr, ptr, ...) @fprintf(ptr noundef %1, ptr noundef nonnull @.str.8, i32 noundef %2, ptr noundef nonnull @.str.9, i32 noundef %3, ptr noundef nonnull @.str.10, ptr noundef nonnull @.str.18) #7
  br label %22

20:                                               ; preds = %4
  %21 = tail call i32 (ptr, ptr, ...) @fprintf(ptr noundef %1, ptr noundef nonnull @.str.19, i32 noundef %2, ptr noundef nonnull @.str.9, i32 noundef %3, ptr noundef nonnull @.str.10, ptr noundef nonnull @.str.20, i32 noundef %5) #7
  br label %22

22:                                               ; preds = %20, %18, %13, %8, %6
  ret i32 0
}